; Function Attrs: mustprogress nofree norecurse nosync nounwind memory(readwrite, inaccessiblemem: none) uwtable
define internal void @_ZN2cvL14randnScale_16sEPKfPsiiS1_S1_b(ptr nocapture noundef readonly %0, ptr nocapture noundef writeonly %1, i32 noundef %2, i32 noundef %3, ptr nocapture noundef readonly %4, ptr nocapture noundef readonly %5, i1 noundef zeroext %6) #10 {
  br i1 %6, label %.preheader65.i, label %29

.preheader65.i:                                   ; preds = %7
  %8 = icmp sgt i32 %2, 0
  br i1 %8, label %.preheader.lr.ph.i, label %_ZN2cvL11randnScale_IsfEEvPKfPT_iiPKT0_S7_b.exit

.preheader.lr.ph.i:                               ; preds = %.preheader65.i
  %9 = icmp sgt i32 %3, 0
  %10 = sext i32 %3 to i64
  br i1 %9, label %.preheader.us.preheader.i, label %_ZN2cvL11randnScale_IsfEEvPKfPT_iiPKT0_S7_b.exit

.preheader.us.preheader.i:                        ; preds = %.preheader.lr.ph.i
  %11 = zext nneg i32 %3 to i64
  br label %.preheader.us.i

.preheader.us.i:                                  ; preds = %._crit_edge80.split.us.us.i, %.preheader.us.preheader.i
  %.184.us.i = phi ptr [ %27, %._crit_edge80.split.us.us.i ], [ %0, %.preheader.us.preheader.i ]
  %.15783.us.i = phi ptr [ %28, %._crit_edge80.split.us.us.i ], [ %1, %.preheader.us.preheader.i ]
  %.282.us.i = phi i32 [ %26, %._crit_edge80.split.us.us.i ], [ 0, %.preheader.us.preheader.i ]
  br label %.lr.ph77.us.us.i

.lr.ph77.us.us.i:                                 ; preds = %._crit_edge.us81.us.i, %.preheader.us.i
  %indvars.iv101.i = phi i64 [ %indvars.iv.next102.i, %._crit_edge.us81.us.i ], [ 0, %.preheader.us.i ]
  %12 = getelementptr inbounds float, ptr %4, i64 %indvars.iv101.i
  %13 = load float, ptr %12, align 4
  %14 = mul nuw nsw i64 %indvars.iv101.i, %11
  %invariant.gep.i = getelementptr inbounds float, ptr %5, i64 %14
  br label %15

15:                                               ; preds = %15, %.lr.ph77.us.us.i
  %indvars.iv96.i = phi i64 [ %indvars.iv.next97.i, %15 ], [ 0, %.lr.ph77.us.us.i ]
  %.076.us.us.i = phi float [ %19, %15 ], [ %13, %.lr.ph77.us.us.i ]
  %16 = getelementptr inbounds float, ptr %.184.us.i, i64 %indvars.iv96.i
  %17 = load float, ptr %16, align 4
  %gep.i = getelementptr inbounds float, ptr %invariant.gep.i, i64 %indvars.iv96.i
  %18 = load float, ptr %gep.i, align 4
  %19 = tail call float @llvm.fmuladd.f32(float %17, float %18, float %.076.us.us.i)
  %indvars.iv.next97.i = add nuw nsw i64 %indvars.iv96.i, 1
  %exitcond100.not.i = icmp eq i64 %indvars.iv.next97.i, %11
  br i1 %exitcond100.not.i, label %._crit_edge.us81.us.i, label %15, !llvm.loop !120

._crit_edge.us81.us.i:                            ; preds = %15
  %20 = insertelement <4 x float> poison, float %19, i64 0
  %21 = tail call noundef i32 @llvm.x86.sse.cvtss2si(<4 x float> %20)
  %22 = tail call i32 @llvm.smax.i32(i32 %21, i32 -32768)
  %23 = tail call i32 @llvm.smin.i32(i32 %22, i32 32767)
  %24 = trunc nsw i32 %23 to i16
  %25 = getelementptr inbounds i16, ptr %.15783.us.i, i64 %indvars.iv101.i
  store i16 %24, ptr %25, align 2
  %indvars.iv.next102.i = add nuw nsw i64 %indvars.iv101.i, 1
  %exitcond105.not.i = icmp eq i64 %indvars.iv.next102.i, %11
  br i1 %exitcond105.not.i, label %._crit_edge80.split.us.us.i, label %.lr.ph77.us.us.i, !llvm.loop !121

._crit_edge80.split.us.us.i:                      ; preds = %._crit_edge.us81.us.i
  %26 = add nuw nsw i32 %.282.us.i, 1
  %27 = getelementptr inbounds float, ptr %.184.us.i, i64 %10
  %28 = getelementptr inbounds i16, ptr %.15783.us.i, i64 %10
  %exitcond106.not.i = icmp eq i32 %26, %2
  br i1 %exitcond106.not.i, label %_ZN2cvL11randnScale_IsfEEvPKfPT_iiPKT0_S7_b.exit, label %.preheader.us.i, !llvm.loop !122

29:                                               ; preds = %7
  %30 = icmp eq i32 %3, 1
  br i1 %30, label %51, label %.preheader68.i

.preheader68.i:                                   ; preds = %29
  %31 = icmp sgt i32 %2, 0
  br i1 %31, label %.preheader67.lr.ph.i, label %_ZN2cvL11randnScale_IsfEEvPKfPT_iiPKT0_S7_b.exit

.preheader67.lr.ph.i:                             ; preds = %.preheader68.i
  %32 = icmp sgt i32 %3, 0
  %33 = sext i32 %3 to i64
  br i1 %32, label %.preheader67.us.preheader.i, label %_ZN2cvL11randnScale_IsfEEvPKfPT_iiPKT0_S7_b.exit

.preheader67.us.preheader.i:                      ; preds = %.preheader67.lr.ph.i
  %wide.trip.count.i = zext nneg i32 %3 to i64
  br label %.preheader67.us.i

.preheader67.us.i:                                ; preds = %._crit_edge.us.i, %.preheader67.us.preheader.i
  %.05573.us.i = phi ptr [ %49, %._crit_edge.us.i ], [ %0, %.preheader67.us.preheader.i ]
  %.05672.us.i = phi ptr [ %50, %._crit_edge.us.i ], [ %1, %.preheader67.us.preheader.i ]
  %.16271.us.i = phi i32 [ %48, %._crit_edge.us.i ], [ 0, %.preheader67.us.preheader.i ]
  br label %34

34:                                               ; preds = %34, %.preheader67.us.i
  %indvars.iv.i = phi i64 [ 0, %.preheader67.us.i ], [ %indvars.iv.next.i, %34 ]
  %35 = getelementptr inbounds float, ptr %.05573.us.i, i64 %indvars.iv.i
  %36 = load float, ptr %35, align 4
  %37 = getelementptr inbounds float, ptr %5, i64 %indvars.iv.i
  %38 = load float, ptr %37, align 4
  %39 = getelementptr inbounds float, ptr %4, i64 %indvars.iv.i
  %40 = load float, ptr %39, align 4
  %41 = tail call float @llvm.fmuladd.f32(float %36, float %38, float %40)
  %42 = insertelement <4 x float> poison, float %41, i64 0
  %43 = tail call noundef i32 @llvm.x86.sse.cvtss2si(<4 x float> %42)
  %44 = tail call i32 @llvm.smax.i32(i32 %43, i32 -32768)
  %45 = tail call i32 @llvm.smin.i32(i32 %44, i32 32767)
  %46 = trunc nsw i32 %45 to i16
  %47 = getelementptr inbounds i16, ptr %.05672.us.i, i64 %indvars.iv.i
  store i16 %46, ptr %47, align 2
  %indvars.iv.next.i = add nuw nsw i64 %indvars.iv.i, 1
  %exitcond.not.i = icmp eq i64 %indvars.iv.next.i, %wide.trip.count.i
  br i1 %exitcond.not.i, label %._crit_edge.us.i, label %34, !llvm.loop !123

._crit_edge.us.i:                                 ; preds = %34
  %48 = add nuw nsw i32 %.16271.us.i, 1
  %49 = getelementptr inbounds float, ptr %.05573.us.i, i64 %33
  %50 = getelementptr inbounds i16, ptr %.05672.us.i, i64 %33
  %exitcond90.not.i = icmp eq i32 %48, %2
  br i1 %exitcond90.not.i, label %_ZN2cvL11randnScale_IsfEEvPKfPT_iiPKT0_S7_b.exit, label %.preheader67.us.i, !llvm.loop !124

51:                                               ; preds = %29
  %52 = load float, ptr %4, align 4
  %53 = load float, ptr %5, align 4
  %54 = icmp sgt i32 %2, 0
  br i1 %54, label %.lr.ph.preheader.i, label %_ZN2cvL11randnScale_IsfEEvPKfPT_iiPKT0_S7_b.exit

.lr.ph.preheader.i:                               ; preds = %51
  %wide.trip.count94.i = zext nneg i32 %2 to i64
  br label %.lr.ph.i

.lr.ph.i:                                         ; preds = %.lr.ph.i, %.lr.ph.preheader.i
  %indvars.iv91.i = phi i64 [ 0, %.lr.ph.preheader.i ], [ %indvars.iv.next92.i, %.lr.ph.i ]
  %55 = getelementptr inbounds float, ptr %0, i64 %indvars.iv91.i
  %56 = load float, ptr %55, align 4
  %57 = tail call float @llvm.fmuladd.f32(float %56, float %53, float %52)
  %58 = insertelement <4 x float> poison, float %57, i64 0
  %59 = tail call noundef i32 @llvm.x86.sse.cvtss2si(<4 x float> %58)
  %60 = tail call i32 @llvm.smax.i32(i32 %59, i32 -32768)
  %61 = tail call i32 @llvm.smin.i32(i32 %60, i32 32767)
  %62 = trunc nsw i32 %61 to i16
  %63 = getelementptr inbounds i16, ptr %1, i64 %indvars.iv91.i
  store i16 %62, ptr %63, align 2
  %indvars.iv.next92.i = add nuw nsw i64 %indvars.iv91.i, 1
  %exitcond95.not.i = icmp eq i64 %indvars.iv.next92.i, %wide.trip.count94.i
  br i1 %exitcond95.not.i, label %_ZN2cvL11randnScale_IsfEEvPKfPT_iiPKT0_S7_b.exit, label %.lr.ph.i, !llvm.loop !125

_ZN2cvL11randnScale_IsfEEvPKfPT_iiPKT0_S7_b.exit: ; preds = %._crit_edge.us.i, %.lr.ph.i, %._crit_edge80.split.us.us.i, %.preheader65.i, %.preheader.lr.ph.i, %.preheader68.i, %.preheader67.lr.ph.i, %51
  ret void
}